target datalayout = "e-m:e-p270:32:32-p271:32:32-p272:64:64-i64:64-i128:128-f80:128-n8:16:32:64-S128"
target triple = "x86_64-pc-linux-gnu"

@stderr = external global ptr, align 8
@.str.130 = private unnamed_addr constant [14 x i8] c"OpenCV TIFF: \00", align 1
@.str.131 = private unnamed_addr constant [5 x i8] c"%s: \00", align 1
@.str.132 = private unnamed_addr constant [10 x i8] c"Warning, \00", align 1
@.str.133 = private unnamed_addr constant [3 x i8] c".\0A\00", align 1

; Function Attrs: mustprogress uwtable
define internal void @_ZN2cvL19cv_tiffErrorHandlerEPKcS1_P13__va_list_tag(ptr noundef %0, ptr noundef %1, ptr noundef %2) #4 {
  %4 = alloca ptr, align 8
  %5 = alloca ptr, align 8
  %6 = alloca ptr, align 8
  store ptr %0, ptr %4, align 8, !tbaa !112
  store ptr %1, ptr %5, align 8, !tbaa !112
  store ptr %2, ptr %6, align 8, !tbaa !227
  %7 = call noundef i32 @_ZN2cv5utils7logging11getLogLevelEv()
  %8 = icmp slt i32 %7, 5
  br i1 %8, label %9, label %10

9:                                                ; preds = %3
  br label %28

10:                                               ; preds = %3
  %11 = load ptr, ptr @stderr, align 8, !tbaa !229
  %12 = call i32 (ptr, ptr, ...) @fprintf(ptr noundef %11, ptr noundef @.str.130) #3
  %13 = load ptr, ptr %4, align 8, !tbaa !112
  %14 = icmp ne ptr %13, null
  br i1 %14, label %15, label %19

15:                                               ; preds = %10
  %16 = load ptr, ptr @stderr, align 8, !tbaa !229
  %17 = load ptr, ptr %4, align 8, !tbaa !112
  %18 = call i32 (ptr, ptr, ...) @fprintf(ptr noundef %16, ptr noundef @.str.131, ptr noundef %17) #3
  br label %19

19:                                               ; preds = %15, %10
  %20 = load ptr, ptr @stderr, align 8, !tbaa !229
  %21 = call i32 (ptr, ptr, ...) @fprintf(ptr noundef %20, ptr noundef @.str.132) #3
  %22 = load ptr, ptr @stderr, align 8, !tbaa !229
  %23 = load ptr, ptr %5, align 8, !tbaa !112
  %24 = load ptr, ptr %6, align 8, !tbaa !227
  %25 = call i32 @vfprintf(ptr noundef %22, ptr noundef %23, ptr noundef %24) #3
  %26 = load ptr, ptr @stderr, align 8, !tbaa !229
  %27 = call i32 (ptr, ptr, ...) @fprintf(ptr noundef %26, ptr noundef @.str.133) #3
  br label %28

28:                                               ; preds = %19, %9
  ret void
}