; Function Attrs: mustprogress uwtable
define internal void @_ZN2cvL19cv_tiffErrorHandlerEPKcS1_P13__va_list_tag(ptr noundef %0, ptr noundef readonly captures(none) %1, ptr noundef %2) #3 {
  %4 = tail call noundef i32 @_ZN2cv5utils7logging11getLogLevelEv()
  %5 = icmp slt i32 %4, 5
  br i1 %5, label %19, label %6

6:                                                ; preds = %3
  %7 = load ptr, ptr @stderr, align 8, !tbaa !205
  %8 = tail call i64 @fwrite(ptr nonnull @.str.130, i64 13, i64 1, ptr %7) #28
  %.not = icmp eq ptr %0, null
  br i1 %.not, label %12, label %9

9:                                                ; preds = %6
  %10 = load ptr, ptr @stderr, align 8, !tbaa !205
  %11 = tail call i32 (ptr, ptr, ...) @fprintf(ptr noundef %10, ptr noundef nonnull @.str.131, ptr noundef nonnull %0) #29
  br label %12

12:                                               ; preds = %9, %6
  %13 = load ptr, ptr @stderr, align 8, !tbaa !205
  %14 = tail call i64 @fwrite(ptr nonnull @.str.132, i64 9, i64 1, ptr %13) #28
  %15 = load ptr, ptr @stderr, align 8, !tbaa !205
  %16 = tail call i32 @vfprintf(ptr noundef %15, ptr noundef %1, ptr noundef %2) #29
  %17 = load ptr, ptr @stderr, align 8, !tbaa !205
  %18 = tail call i64 @fwrite(ptr nonnull @.str.133, i64 2, i64 1, ptr %17) #28
  br label %19

19:                                               ; preds = %3, %12
  ret void
}